target datalayout = "e-m:e-p270:32:32-p271:32:32-p272:64:64-i64:64-i128:128-f80:128-n8:16:32:64-S128"
target triple = "x86_64-pc-linux-gnu"

%struct.sat_solver3_t = type { i32, i32, i32, i32, %struct.Sat_Mem_t_, i32, i32, ptr, ptr, i32, i32, i32, i32, i32, i64, i64, i64, ptr, ptr, i32, i32, %struct.veci_t, ptr, i32, ptr, ptr, ptr, ptr, ptr, ptr, ptr, ptr, %struct.veci_t, %struct.veci_t, %struct.veci_t, %struct.veci_t, ptr, %struct.veci_t, i32, i32, i32, double, double, i32, i32, %struct.stats_t, i32, i32, i32, i32, i32, i64, i64, i64, %struct.veci_t, ptr, i32, i32, i32, %struct.veci_t, %struct.veci_t, i32, i32, i32, ptr, ptr, i32, ptr, i32, i32, %struct.veci_t, ptr, ptr }
%struct.Sat_Mem_t_ = type { [2 x i32], [2 x i32], [2 x i32], [2 x i32], i32, i32, i32, i32, ptr }
%struct.stats_t = type { i32, i32, i32, i64, i64, i64, i64, i64, i64, i64 }
%struct.veci_t = type { i32, i32, ptr }
%union.anon = type { i64 }

; Function Attrs: inlinehint nounwind uwtable
define internal ptr @veci_begin(ptr noundef %0) #1 {
  %2 = alloca ptr, align 8
  store ptr %0, ptr %2, align 8, !tbaa !45
  %3 = load ptr, ptr %2, align 8, !tbaa !45
  %4 = getelementptr inbounds nuw %struct.veci_t, ptr %3, i32 0, i32 2
  %5 = load ptr, ptr %4, align 8, !tbaa !48
  ret ptr %5
}

; Function Attrs: inlinehint nounwind uwtable
define internal void @order_update(ptr noundef %0, i32 noundef %1) #1 {
  %3 = alloca ptr, align 8
  %4 = alloca i32, align 4
  %5 = alloca ptr, align 8
  %6 = alloca ptr, align 8
  %7 = alloca i32, align 4
  %8 = alloca i32, align 4
  %9 = alloca i32, align 4
  store ptr %0, ptr %3, align 8, !tbaa !3
  store i32 %1, ptr %4, align 4, !tbaa !8
  call void @llvm.lifetime.start.p0(i64 8, ptr %5) #13
  %10 = load ptr, ptr %3, align 8, !tbaa !3
  %11 = getelementptr inbounds nuw %struct.sat_solver3_t, ptr %10, i32 0, i32 29
  %12 = load ptr, ptr %11, align 8, !tbaa !35
  store ptr %12, ptr %5, align 8, !tbaa !26
  call void @llvm.lifetime.start.p0(i64 8, ptr %6) #13
  %13 = load ptr, ptr %3, align 8, !tbaa !3
  %14 = getelementptr inbounds nuw %struct.sat_solver3_t, ptr %13, i32 0, i32 34
  %15 = call ptr @veci_begin(ptr noundef %14)
  store ptr %15, ptr %6, align 8, !tbaa !26
  call void @llvm.lifetime.start.p0(i64 4, ptr %7) #13
  %16 = load ptr, ptr %5, align 8, !tbaa !26
  %17 = load i32, ptr %4, align 4, !tbaa !8
  %18 = sext i32 %17 to i64
  %19 = getelementptr inbounds i32, ptr %16, i64 %18
  %20 = load i32, ptr %19, align 4, !tbaa !8
  store i32 %20, ptr %7, align 4, !tbaa !8
  call void @llvm.lifetime.start.p0(i64 4, ptr %8) #13
  %21 = load ptr, ptr %6, align 8, !tbaa !26
  %22 = load i32, ptr %7, align 4, !tbaa !8
  %23 = sext i32 %22 to i64
  %24 = getelementptr inbounds i32, ptr %21, i64 %23
  %25 = load i32, ptr %24, align 4, !tbaa !8
  store i32 %25, ptr %8, align 4, !tbaa !8
  call void @llvm.lifetime.start.p0(i64 4, ptr %9) #13
  %26 = load i32, ptr %7, align 4, !tbaa !8
  %27 = sub nsw i32 %26, 1
  %28 = sdiv i32 %27, 2
  store i32 %28, ptr %9, align 4, !tbaa !8
  br label %29

29:                                               ; preds = %54, %2
  %30 = load i32, ptr %7, align 4, !tbaa !8
  %31 = icmp ne i32 %30, 0
  br i1 %31, label %32, label %52

32:                                               ; preds = %29
  %33 = load ptr, ptr %3, align 8, !tbaa !3
  %34 = getelementptr inbounds nuw %struct.sat_solver3_t, ptr %33, i32 0, i32 17
  %35 = load ptr, ptr %34, align 8, !tbaa !28
  %36 = load i32, ptr %8, align 4, !tbaa !8
  %37 = sext i32 %36 to i64
  %38 = getelementptr inbounds i64, ptr %35, i64 %37
  %39 = load i64, ptr %38, align 8, !tbaa !29
  %40 = load ptr, ptr %3, align 8, !tbaa !3
  %41 = getelementptr inbounds nuw %struct.sat_solver3_t, ptr %40, i32 0, i32 17
  %42 = load ptr, ptr %41, align 8, !tbaa !28
  %43 = load ptr, ptr %6, align 8, !tbaa !26
  %44 = load i32, ptr %9, align 4, !tbaa !8
  %45 = sext i32 %44 to i64
  %46 = getelementptr inbounds i32, ptr %43, i64 %45
  %47 = load i32, ptr %46, align 4, !tbaa !8
  %48 = sext i32 %47 to i64
  %49 = getelementptr inbounds i64, ptr %42, i64 %48
  %50 = load i64, ptr %49, align 8, !tbaa !29
  %51 = icmp ugt i64 %39, %50
  br label %52

52:                                               ; preds = %32, %29
  %53 = phi i1 [ false, %29 ], [ %51, %32 ]
  br i1 %53, label %54, label %77

54:                                               ; preds = %52
  %55 = load ptr, ptr %6, align 8, !tbaa !26
  %56 = load i32, ptr %9, align 4, !tbaa !8
  %57 = sext i32 %56 to i64
  %58 = getelementptr inbounds i32, ptr %55, i64 %57
  %59 = load i32, ptr %58, align 4, !tbaa !8
  %60 = load ptr, ptr %6, align 8, !tbaa !26
  %61 = load i32, ptr %7, align 4, !tbaa !8
  %62 = sext i32 %61 to i64
  %63 = getelementptr inbounds i32, ptr %60, i64 %62
  store i32 %59, ptr %63, align 4, !tbaa !8
  %64 = load i32, ptr %7, align 4, !tbaa !8
  %65 = load ptr, ptr %5, align 8, !tbaa !26
  %66 = load ptr, ptr %6, align 8, !tbaa !26
  %67 = load i32, ptr %7, align 4, !tbaa !8
  %68 = sext i32 %67 to i64
  %69 = getelementptr inbounds i32, ptr %66, i64 %68
  %70 = load i32, ptr %69, align 4, !tbaa !8
  %71 = sext i32 %70 to i64
  %72 = getelementptr inbounds i32, ptr %65, i64 %71
  store i32 %64, ptr %72, align 4, !tbaa !8
  %73 = load i32, ptr %9, align 4, !tbaa !8
  store i32 %73, ptr %7, align 4, !tbaa !8
  %74 = load i32, ptr %7, align 4, !tbaa !8
  %75 = sub nsw i32 %74, 1
  %76 = sdiv i32 %75, 2
  store i32 %76, ptr %9, align 4, !tbaa !8
  br label %29, !llvm.loop !36

77:                                               ; preds = %52
  %78 = load i32, ptr %8, align 4, !tbaa !8
  %79 = load ptr, ptr %6, align 8, !tbaa !26
  %80 = load i32, ptr %7, align 4, !tbaa !8
  %81 = sext i32 %80 to i64
  %82 = getelementptr inbounds i32, ptr %79, i64 %81
  store i32 %78, ptr %82, align 4, !tbaa !8
  %83 = load i32, ptr %7, align 4, !tbaa !8
  %84 = load ptr, ptr %5, align 8, !tbaa !26
  %85 = load i32, ptr %8, align 4, !tbaa !8
  %86 = sext i32 %85 to i64
  %87 = getelementptr inbounds i32, ptr %84, i64 %86
  store i32 %83, ptr %87, align 4, !tbaa !8
  call void @llvm.lifetime.end.p0(i64 4, ptr %9) #13
  call void @llvm.lifetime.end.p0(i64 4, ptr %8) #13
  call void @llvm.lifetime.end.p0(i64 4, ptr %7) #13
  call void @llvm.lifetime.end.p0(i64 8, ptr %6) #13
  call void @llvm.lifetime.end.p0(i64 8, ptr %5) #13
  ret void
}

; Function Attrs: inlinehint nounwind uwtable
define internal i64 @Abc_Dbl2Word(double noundef %0) #1 {
  %2 = alloca double, align 8
  %3 = alloca %union.anon, align 8
  store double %0, ptr %2, align 8, !tbaa !34
  call void @llvm.lifetime.start.p0(i64 8, ptr %3) #13
  %4 = load double, ptr %2, align 8, !tbaa !34
  store double %4, ptr %3, align 8, !tbaa !25
  %5 = load i64, ptr %3, align 8, !tbaa !25
  call void @llvm.lifetime.end.p0(i64 8, ptr %3) #13
  ret i64 %5
}

; Function Attrs: nounwind uwtable
define void @sat_solver3_set_var_activity(ptr noundef %0, ptr noundef %1, i32 noundef %2) #0 {
  %4 = alloca ptr, align 8
  %5 = alloca ptr, align 8
  %6 = alloca i32, align 4
  %7 = alloca i32, align 4
  %8 = alloca i32, align 4
  store ptr %0, ptr %4, align 8, !tbaa !3
  store ptr %1, ptr %5, align 8, !tbaa !26
  store i32 %2, ptr %6, align 4, !tbaa !8
  call void @llvm.lifetime.start.p0(i64 4, ptr %7) #13
  store i32 0, ptr %7, align 4, !tbaa !8
  br label %9

9:                                                ; preds = %22, %3
  %10 = load i32, ptr %7, align 4, !tbaa !8
  %11 = load ptr, ptr %4, align 8, !tbaa !3
  %12 = getelementptr inbounds nuw %struct.sat_solver3_t, ptr %11, i32 0, i32 0
  %13 = load i32, ptr %12, align 8, !tbaa !27
  %14 = icmp slt i32 %10, %13
  br i1 %14, label %15, label %25

15:                                               ; preds = %9
  %16 = load ptr, ptr %4, align 8, !tbaa !3
  %17 = getelementptr inbounds nuw %struct.sat_solver3_t, ptr %16, i32 0, i32 17
  %18 = load ptr, ptr %17, align 8, !tbaa !28
  %19 = load i32, ptr %7, align 4, !tbaa !8
  %20 = sext i32 %19 to i64
  %21 = getelementptr inbounds i64, ptr %18, i64 %20
  store i64 0, ptr %21, align 8, !tbaa !29
  br label %22

22:                                               ; preds = %15
  %23 = load i32, ptr %7, align 4, !tbaa !8
  %24 = add nsw i32 %23, 1
  store i32 %24, ptr %7, align 4, !tbaa !8
  br label %9, !llvm.loop !30

25:                                               ; preds = %9
  %26 = call i64 @Abc_Dbl2Word(double noundef 1.000000e+00)
  %27 = load ptr, ptr %4, align 8, !tbaa !3
  %28 = getelementptr inbounds nuw %struct.sat_solver3_t, ptr %27, i32 0, i32 14
  store i64 %26, ptr %28, align 8, !tbaa !32
  store i32 0, ptr %7, align 4, !tbaa !8
  br label %29

29:                                               ; preds = %59, %25
  %30 = load i32, ptr %7, align 4, !tbaa !8
  %31 = load i32, ptr %6, align 4, !tbaa !8
  %32 = icmp slt i32 %30, %31
  br i1 %32, label %33, label %62

33:                                               ; preds = %29
  call void @llvm.lifetime.start.p0(i64 4, ptr %8) #13
  %34 = load ptr, ptr %5, align 8, !tbaa !26
  %35 = icmp ne ptr %34, null
  br i1 %35, label %36, label %42

36:                                               ; preds = %33
  %37 = load ptr, ptr %5, align 8, !tbaa !26
  %38 = load i32, ptr %7, align 4, !tbaa !8
  %39 = sext i32 %38 to i64
  %40 = getelementptr inbounds i32, ptr %37, i64 %39
  %41 = load i32, ptr %40, align 4, !tbaa !8
  br label %44

42:                                               ; preds = %33
  %43 = load i32, ptr %7, align 4, !tbaa !8
  br label %44

44:                                               ; preds = %42, %36
  %45 = phi i32 [ %41, %36 ], [ %43, %42 ]
  store i32 %45, ptr %8, align 4, !tbaa !8
  %46 = load i32, ptr %6, align 4, !tbaa !8
  %47 = load i32, ptr %7, align 4, !tbaa !8
  %48 = sub nsw i32 %46, %47
  %49 = sitofp i32 %48 to double
  %50 = call i64 @Abc_Dbl2Word(double noundef %49)
  %51 = load ptr, ptr %4, align 8, !tbaa !3
  %52 = getelementptr inbounds nuw %struct.sat_solver3_t, ptr %51, i32 0, i32 17
  %53 = load ptr, ptr %52, align 8, !tbaa !28
  %54 = load i32, ptr %8, align 4, !tbaa !8
  %55 = sext i32 %54 to i64
  %56 = getelementptr inbounds i64, ptr %53, i64 %55
  store i64 %50, ptr %56, align 8, !tbaa !29
  %57 = load ptr, ptr %4, align 8, !tbaa !3
  %58 = load i32, ptr %8, align 4, !tbaa !8
  call void @order_update(ptr noundef %57, i32 noundef %58)
  call void @llvm.lifetime.end.p0(i64 4, ptr %8) #13
  br label %59

59:                                               ; preds = %44
  %60 = load i32, ptr %7, align 4, !tbaa !8
  %61 = add nsw i32 %60, 1
  store i32 %61, ptr %7, align 4, !tbaa !8
  br label %29, !llvm.loop !33

62:                                               ; preds = %29
  call void @llvm.lifetime.end.p0(i64 4, ptr %7) #13
  ret void
}