; Function Attrs: nofree norecurse nosync nounwind memory(readwrite, inaccessiblemem: none) uwtable
define void @sat_solver3_set_var_activity(ptr noundef captures(none) initializes((120, 128)) %0, ptr noundef readonly %1, i32 noundef %2) local_unnamed_addr #1 {
  %4 = load i32, ptr %0, align 8, !tbaa !23
  %5 = icmp sgt i32 %4, 0
  br i1 %5, label %.lr.ph, label %._crit_edge

.lr.ph:                                           ; preds = %3
  %6 = getelementptr inbounds nuw i8, ptr %0, i64 144
  %7 = load ptr, ptr %6, align 8, !tbaa !24
  %8 = zext nneg i32 %4 to i64
  %9 = shl nuw nsw i64 %8, 3
  tail call void @llvm.memset.p0.i64(ptr align 8 %7, i8 0, i64 %9, i1 false), !tbaa !25
  br label %._crit_edge

._crit_edge:                                      ; preds = %.lr.ph, %3
  %10 = getelementptr inbounds nuw i8, ptr %0, i64 120
  store i64 4607182418800017408, ptr %10, align 8, !tbaa !26
  %11 = icmp sgt i32 %2, 0
  br i1 %11, label %.lr.ph23, label %._crit_edge24

.lr.ph23:                                         ; preds = %._crit_edge
  %.not = icmp eq ptr %1, null
  %12 = getelementptr inbounds nuw i8, ptr %0, i64 144
  %13 = load ptr, ptr %12, align 8, !tbaa !24
  %14 = getelementptr inbounds nuw i8, ptr %0, i64 240
  %15 = load ptr, ptr %14, align 8, !tbaa !27
  %16 = getelementptr i8, ptr %0, i64 304
  %.val.i = load ptr, ptr %16, align 8, !tbaa !28
  %wide.trip.count31 = zext nneg i32 %2 to i64
  br i1 %.not, label %.lr.ph23.split.us, label %.lr.ph23.split

.lr.ph23.split.us:                                ; preds = %.lr.ph23, %order_update.exit.us
  %indvars.iv28 = phi i64 [ %indvars.iv.next29, %order_update.exit.us ], [ 0, %.lr.ph23 ]
  %17 = trunc i64 %indvars.iv28 to i32
  %18 = sub i32 %2, %17
  %19 = sitofp i32 %18 to double
  %20 = getelementptr inbounds nuw i64, ptr %13, i64 %indvars.iv28
  store double %19, ptr %20, align 8, !tbaa !25
  %21 = getelementptr inbounds nuw i32, ptr %15, i64 %indvars.iv28
  %22 = load i32, ptr %21, align 4, !tbaa !29
  %23 = sext i32 %22 to i64
  %24 = getelementptr inbounds i32, ptr %.val.i, i64 %23
  %25 = load i32, ptr %24, align 4, !tbaa !29
  %.not31.i.us = icmp eq i32 %22, 0
  %.pre.i.us = sext i32 %25 to i64
  br i1 %.not31.i.us, label %order_update.exit.us, label %.lr.ph.i.us

.lr.ph.i.us:                                      ; preds = %.lr.ph23.split.us
  %26 = getelementptr inbounds i64, ptr %13, i64 %.pre.i.us
  %27 = load i64, ptr %26, align 8, !tbaa !25
  br label %28

28:                                               ; preds = %36, %.lr.ph.i.us
  %.02832.i.us = phi i32 [ %22, %.lr.ph.i.us ], [ %.033.i.us, %36 ]
  %.033.in.i.us = add nsw i32 %.02832.i.us, -1
  %.033.i.us = sdiv i32 %.033.in.i.us, 2
  %29 = sext i32 %.033.i.us to i64
  %30 = getelementptr inbounds i32, ptr %.val.i, i64 %29
  %31 = load i32, ptr %30, align 4, !tbaa !29
  %32 = sext i32 %31 to i64
  %33 = getelementptr inbounds i64, ptr %13, i64 %32
  %34 = load i64, ptr %33, align 8, !tbaa !25
  %35 = icmp ugt i64 %27, %34
  br i1 %35, label %36, label %order_update.exit.us

36:                                               ; preds = %28
  %37 = sext i32 %.02832.i.us to i64
  %38 = getelementptr inbounds i32, ptr %.val.i, i64 %37
  store i32 %31, ptr %38, align 4, !tbaa !29
  %39 = getelementptr inbounds i32, ptr %15, i64 %32
  store i32 %.02832.i.us, ptr %39, align 4, !tbaa !29
  %.not.i.us = icmp ult i32 %.02832.i.us, 3
  br i1 %.not.i.us, label %order_update.exit.us, label %28, !llvm.loop !30

order_update.exit.us:                             ; preds = %28, %36, %.lr.ph23.split.us
  %.028.lcssa.i.us = phi i32 [ 0, %.lr.ph23.split.us ], [ %.033.i.us, %36 ], [ %.02832.i.us, %28 ]
  %40 = sext i32 %.028.lcssa.i.us to i64
  %41 = getelementptr inbounds i32, ptr %.val.i, i64 %40
  store i32 %25, ptr %41, align 4, !tbaa !29
  %42 = getelementptr inbounds i32, ptr %15, i64 %.pre.i.us
  store i32 %.028.lcssa.i.us, ptr %42, align 4, !tbaa !29
  %indvars.iv.next29 = add nuw nsw i64 %indvars.iv28, 1
  %exitcond32.not = icmp eq i64 %indvars.iv.next29, %wide.trip.count31
  br i1 %exitcond32.not, label %._crit_edge24, label %.lr.ph23.split.us, !llvm.loop !32

.lr.ph23.split:                                   ; preds = %.lr.ph23, %order_update.exit
  %indvars.iv = phi i64 [ %indvars.iv.next, %order_update.exit ], [ 0, %.lr.ph23 ]
  %43 = getelementptr inbounds nuw i32, ptr %1, i64 %indvars.iv
  %44 = load i32, ptr %43, align 4, !tbaa !29
  %45 = trunc i64 %indvars.iv to i32
  %46 = sub i32 %2, %45
  %47 = sitofp i32 %46 to double
  %48 = sext i32 %44 to i64
  %49 = getelementptr inbounds i64, ptr %13, i64 %48
  store double %47, ptr %49, align 8, !tbaa !25
  %50 = getelementptr inbounds i32, ptr %15, i64 %48
  %51 = load i32, ptr %50, align 4, !tbaa !29
  %52 = sext i32 %51 to i64
  %53 = getelementptr inbounds i32, ptr %.val.i, i64 %52
  %54 = load i32, ptr %53, align 4, !tbaa !29
  %.not31.i = icmp eq i32 %51, 0
  %.pre.i = sext i32 %54 to i64
  br i1 %.not31.i, label %order_update.exit, label %.lr.ph.i

.lr.ph.i:                                         ; preds = %.lr.ph23.split
  %55 = getelementptr inbounds i64, ptr %13, i64 %.pre.i
  %56 = load i64, ptr %55, align 8, !tbaa !25
  br label %57

57:                                               ; preds = %65, %.lr.ph.i
  %.02832.i = phi i32 [ %51, %.lr.ph.i ], [ %.033.i, %65 ]
  %.033.in.i = add nsw i32 %.02832.i, -1
  %.033.i = sdiv i32 %.033.in.i, 2
  %58 = sext i32 %.033.i to i64
  %59 = getelementptr inbounds i32, ptr %.val.i, i64 %58
  %60 = load i32, ptr %59, align 4, !tbaa !29
  %61 = sext i32 %60 to i64
  %62 = getelementptr inbounds i64, ptr %13, i64 %61
  %63 = load i64, ptr %62, align 8, !tbaa !25
  %64 = icmp ugt i64 %56, %63
  br i1 %64, label %65, label %order_update.exit

65:                                               ; preds = %57
  %66 = sext i32 %.02832.i to i64
  %67 = getelementptr inbounds i32, ptr %.val.i, i64 %66
  store i32 %60, ptr %67, align 4, !tbaa !29
  %68 = getelementptr inbounds i32, ptr %15, i64 %61
  store i32 %.02832.i, ptr %68, align 4, !tbaa !29
  %.not.i = icmp ult i32 %.02832.i, 3
  br i1 %.not.i, label %order_update.exit, label %57, !llvm.loop !30

order_update.exit:                                ; preds = %57, %65, %.lr.ph23.split
  %.028.lcssa.i = phi i32 [ 0, %.lr.ph23.split ], [ %.033.i, %65 ], [ %.02832.i, %57 ]
  %69 = sext i32 %.028.lcssa.i to i64
  %70 = getelementptr inbounds i32, ptr %.val.i, i64 %69
  store i32 %54, ptr %70, align 4, !tbaa !29
  %71 = getelementptr inbounds i32, ptr %15, i64 %.pre.i
  store i32 %.028.lcssa.i, ptr %71, align 4, !tbaa !29
  %indvars.iv.next = add nuw nsw i64 %indvars.iv, 1
  %exitcond.not = icmp eq i64 %indvars.iv.next, %wide.trip.count31
  br i1 %exitcond.not, label %._crit_edge24, label %.lr.ph23.split, !llvm.loop !32

._crit_edge24:                                    ; preds = %order_update.exit, %order_update.exit.us, %._crit_edge
  ret void
}